(dp1
S'OriginalConfig'
p2
ccopy_reg
_reconstructor
p3
(cWMCore.Configuration
Configuration
p4
c__builtin__
object
p5
NtRp6
(dp7
S'Site'
p8
g3
(cWMCore.Configuration
ConfigSection
p9
g5
NtRp10
(dp11
S'_internal_documentation'
p12
S''
sS'_internal_settings'
p13
c__builtin__
set
p14
((lp15
S'storageSite'
p16
atRp17
sS'_internal_name'
p18
g8
sS'_internal_docstrings'
p19
(dp20
sS'_internal_children'
p21
g14
((ltRp22
sg16
S'T2_CH_CERN'
p23
sS'_internal_parent_ref'
p24
NsbsS'_internal_sections'
p25
(lp26
S'General'
p27
aS'JobType'
p28
aS'Data'
p29
ag8
aS'User'
p30
aS'Debug'
p31
asg27
g3
(g9
g5
NtRp32
(dp33
g12
S''
sg13
g14
((lp34
S'workArea'
p35
aS'requestName'
p36
atRp37
sg18
g27
sg19
(dp38
sg21
g14
((ltRp39
sg36
S'crabtestjetmet1'
p40
sg24
Nsg35
S'crab_projects'
p41
sbsS'_internal_webapps'
p42
(lp43
sg30
g3
(g9
g5
NtRp44
(dp45
g12
S''
sg13
g14
((ltRp46
sg18
g30
sg19
(dp47
sg21
g14
((ltRp48
sg24
NsbsS'_internal_components'
p49
(lp50
sg31
g3
(g9
g5
NtRp51
(dp52
g12
S''
sg13
g14
((ltRp53
sg18
g31
sg19
(dp54
sg21
g14
((ltRp55
sg24
Nsbsg29
g3
(g9
g5
NtRp56
(dp57
S'inputDataset'
p58
S'/DYJetsToLL_M-50_13TeV-madgraph-pythia8/Phys14DR-PU4bx50_PHYS14_25_V1-v1/MINIAODSIM'
p59
sS'outLFN'
p60
S'/store/user/shtan/testcrab3/'
p61
sS'publication'
p62
I00
sS'splitting'
p63
S'FileBased'
p64
sS'unitsPerJob'
p65
I10
sg12
S''
sg13
g14
((lp66
g58
ag60
ag62
ag65
aS'inputDBS'
p67
ag63
atRp68
sg18
g29
sg67
S'global'
p69
sg19
(dp70
sg21
g14
((ltRp71
sg24
Nsbsg28
g3
(g9
g5
NtRp72
(dp73
S'outputFiles'
p74
(lp75
S'ntuple.root'
p76
asg12
S''
sg13
g14
((lp77
S'psetName'
p78
aS'pluginName'
p79
ag74
atRp80
sg18
g28
sg19
(dp81
sg79
S'Analysis'
p82
sg21
g14
((ltRp83
sg78
S'makentuple_cfg.py'
p84
sg24
NsbsbsS'voGroup'
p85
S''
sS'Server'
p86
S'cmsweb.cern.ch'
p87
sS'instance'
p88
S'prod'
p89
sS'RequestName'
p90
S'150415_090404:shtan_crab_crabtestjetmet1'
p91
sS'voRole'
p92
S''
sS'Port'
p93
S''
s.